target datalayout = "e-m:e-p270:32:32-p271:32:32-p272:64:64-i64:64-i128:128-f80:128-n8:16:32:64-S128"
target triple = "x86_64-unknown-linux-gnu"

@.str.2 = private unnamed_addr constant [2 x i8] c" \00", align 1
@.str.3 = private unnamed_addr constant [2 x i8] c"$\00", align 1

; Function Attrs: mustprogress uwtable
define hidden noundef zeroext i1 @_ZN10ODDLParser13OpenDDLExport15writeNodeHeaderEPNS_7DDLNodeERNSt7__cxx1112basic_stringIcSt11char_traitsIcESaIcEEE(ptr noundef nonnull align 8 dereferenceable(8) %this, ptr noundef %node, ptr noundef nonnull align 8 dereferenceable(32) %statement) #0 align 2 {
entry:
  %retval = alloca i1, align 1
  %this.addr = alloca ptr, align 8
  %node.addr = alloca ptr, align 8
  %statement.addr = alloca ptr, align 8
  %name = alloca ptr, align 8
  store ptr %this, ptr %this.addr, align 8
  store ptr %node, ptr %node.addr, align 8
  store ptr %statement, ptr %statement.addr, align 8
  %0 = load ptr, ptr %node.addr, align 8
  %cmp = icmp eq ptr null, %0
  br i1 %cmp, label %if.then, label %if.end

if.then:                                          ; preds = %entry
  store i1 false, ptr %retval, align 1
  br label %return

if.end:                                           ; preds = %entry
  %1 = load ptr, ptr %node.addr, align 8
  %call = call noundef nonnull align 8 dereferenceable(32) ptr @_ZNK10ODDLParser7DDLNode7getTypeB5cxx11Ev(ptr noundef nonnull align 8 dereferenceable(136) %1)
  %2 = load ptr, ptr %statement.addr, align 8
  %call2 = call noundef nonnull align 8 dereferenceable(32) ptr @_ZNSt7__cxx1112basic_stringIcSt11char_traitsIcESaIcEEpLERKS4_(ptr noundef nonnull align 8 dereferenceable(32) %2, ptr noundef nonnull align 8 dereferenceable(32) %call)
  %3 = load ptr, ptr %node.addr, align 8
  %call3 = call noundef nonnull align 8 dereferenceable(32) ptr @_ZNK10ODDLParser7DDLNode7getNameB5cxx11Ev(ptr noundef nonnull align 8 dereferenceable(136) %3)
  store ptr %call3, ptr %name, align 8
  %4 = load ptr, ptr %name, align 8
  %call4 = call noundef zeroext i1 @_ZNKSt7__cxx1112basic_stringIcSt11char_traitsIcESaIcEE5emptyEv(ptr noundef nonnull align 8 dereferenceable(32) %4) #11
  br i1 %call4, label %if.end9, label %if.then5

if.then5:                                         ; preds = %if.end
  %5 = load ptr, ptr %statement.addr, align 8
  %call6 = call noundef nonnull align 8 dereferenceable(32) ptr @_ZNSt7__cxx1112basic_stringIcSt11char_traitsIcESaIcEEpLEPKc(ptr noundef nonnull align 8 dereferenceable(32) %5, ptr noundef @.str.2)
  %6 = load ptr, ptr %statement.addr, align 8
  %call7 = call noundef nonnull align 8 dereferenceable(32) ptr @_ZNSt7__cxx1112basic_stringIcSt11char_traitsIcESaIcEEpLEPKc(ptr noundef nonnull align 8 dereferenceable(32) %6, ptr noundef @.str.3)
  %7 = load ptr, ptr %name, align 8
  %8 = load ptr, ptr %statement.addr, align 8
  %call8 = call noundef nonnull align 8 dereferenceable(32) ptr @_ZNSt7__cxx1112basic_stringIcSt11char_traitsIcESaIcEEpLERKS4_(ptr noundef nonnull align 8 dereferenceable(32) %8, ptr noundef nonnull align 8 dereferenceable(32) %7)
  br label %if.end9

if.end9:                                          ; preds = %if.then5, %if.end
  store i1 true, ptr %retval, align 1
  br label %return

return:                                           ; preds = %if.end9, %if.then
  %9 = load i1, ptr %retval, align 1
  ret i1 %9
}