; Function Attrs: mustprogress uwtable
define hidden noundef zeroext i1 @_ZN10ODDLParser13OpenDDLExport15writeNodeHeaderEPNS_7DDLNodeERNSt7__cxx1112basic_stringIcSt11char_traitsIcESaIcEEE(ptr noundef nonnull readnone align 8 captures(none) dereferenceable(8) %this, ptr noundef %node, ptr noundef nonnull align 8 dereferenceable(32) %statement) local_unnamed_addr #0 align 2 {
entry:
  %cmp = icmp ne ptr %node, null
  br i1 %cmp, label %if.end, label %return

if.end:                                           ; preds = %entry
  %call = tail call noundef nonnull align 8 dereferenceable(32) ptr @_ZNK10ODDLParser7DDLNode7getTypeB5cxx11Ev(ptr noundef nonnull align 8 dereferenceable(136) %node)
  %call2 = tail call noundef nonnull align 8 dereferenceable(32) ptr @_ZNSt7__cxx1112basic_stringIcSt11char_traitsIcESaIcEEpLERKS4_(ptr noundef nonnull align 8 dereferenceable(32) %statement, ptr noundef nonnull align 8 dereferenceable(32) %call)
  %call3 = tail call noundef nonnull align 8 dereferenceable(32) ptr @_ZNK10ODDLParser7DDLNode7getNameB5cxx11Ev(ptr noundef nonnull align 8 dereferenceable(136) %node)
  %call4 = tail call noundef zeroext i1 @_ZNKSt7__cxx1112basic_stringIcSt11char_traitsIcESaIcEE5emptyEv(ptr noundef nonnull align 8 dereferenceable(32) %call3) #14
  br i1 %call4, label %return, label %if.then5

if.then5:                                         ; preds = %if.end
  %call6 = tail call noundef nonnull align 8 dereferenceable(32) ptr @_ZNSt7__cxx1112basic_stringIcSt11char_traitsIcESaIcEEpLEPKc(ptr noundef nonnull align 8 dereferenceable(32) %statement, ptr noundef nonnull @.str.2)
  %call7 = tail call noundef nonnull align 8 dereferenceable(32) ptr @_ZNSt7__cxx1112basic_stringIcSt11char_traitsIcESaIcEEpLEPKc(ptr noundef nonnull align 8 dereferenceable(32) %statement, ptr noundef nonnull @.str.3)
  %call8 = tail call noundef nonnull align 8 dereferenceable(32) ptr @_ZNSt7__cxx1112basic_stringIcSt11char_traitsIcESaIcEEpLERKS4_(ptr noundef nonnull align 8 dereferenceable(32) %statement, ptr noundef nonnull align 8 dereferenceable(32) %call3)
  br label %return

return:                                           ; preds = %if.end, %if.then5, %entry
  ret i1 %cmp
}